target datalayout = "e-m:e-p270:32:32-p271:32:32-p272:64:64-i64:64-i128:128-f80:128-n8:16:32:64-S128"
target triple = "x86_64-unknown-linux-gnu"

%"class.Assimp::MD5Importer" = type <{ %"class.Assimp::BaseImporter", ptr, %"class.std::__cxx11::basic_string", ptr, i32, i32, ptr, i8, i8, i8, i8, [4 x i8] }>
%"class.Assimp::BaseImporter" = type { ptr, double, double, %"class.std::__cxx11::basic_string", %"class.std::__exception_ptr::exception_ptr", ptr }
%"class.std::__exception_ptr::exception_ptr" = type { ptr }
%"class.std::__cxx11::basic_string" = type { %"struct.std::__cxx11::basic_string<char>::_Alloc_hider", i64, %union.anon }
%"struct.std::__cxx11::basic_string<char>::_Alloc_hider" = type { ptr }
%union.anon = type { i64, [8 x i8] }

; Function Attrs: mustprogress nounwind uwtable
define hidden void @_ZN6Assimp11MD5Importer20UnloadFileFromMemoryEv(ptr noundef nonnull align 8 dereferenceable(140) %this) #0 align 2 {
entry:
  %this.addr = alloca ptr, align 8
  store ptr %this, ptr %this.addr, align 8
  %this1 = load ptr, ptr %this.addr, align 8
  %mBuffer = getelementptr inbounds %"class.Assimp::MD5Importer", ptr %this1, i32 0, i32 3
  %0 = load ptr, ptr %mBuffer, align 8
  %isnull = icmp eq ptr %0, null
  br i1 %isnull, label %delete.end, label %delete.notnull

delete.notnull:                                   ; preds = %entry
  call void @_ZdaPv(ptr noundef %0) #18
  br label %delete.end

delete.end:                                       ; preds = %delete.notnull, %entry
  %mBuffer2 = getelementptr inbounds %"class.Assimp::MD5Importer", ptr %this1, i32 0, i32 3
  store ptr null, ptr %mBuffer2, align 8
  %mFileSize = getelementptr inbounds %"class.Assimp::MD5Importer", ptr %this1, i32 0, i32 4
  store i32 0, ptr %mFileSize, align 8
  ret void
}