; Function Attrs: mustprogress nounwind uwtable
define hidden void @_ZN6Assimp11MD5Importer20UnloadFileFromMemoryEv(ptr nocapture noundef nonnull align 8 dereferenceable(140) %this) local_unnamed_addr #0 align 2 {
entry:
  %mBuffer = getelementptr inbounds i8, ptr %this, i64 112
  %0 = load ptr, ptr %mBuffer, align 8
  %isnull = icmp eq ptr %0, null
  br i1 %isnull, label %delete.end, label %delete.notnull

delete.notnull:                                   ; preds = %entry
  tail call void @_ZdaPv(ptr noundef nonnull %0) #22
  br label %delete.end

delete.end:                                       ; preds = %delete.notnull, %entry
  store ptr null, ptr %mBuffer, align 8
  %mFileSize = getelementptr inbounds i8, ptr %this, i64 120
  store i32 0, ptr %mFileSize, align 8
  ret void
}